; Function Attrs: mustprogress uwtable
define noundef double @_ZNK8QuantLib15CPICouponPricer10capletRateEd(ptr noundef nonnull align 8 dereferenceable(72) %this, double noundef %effectiveCap) unnamed_addr #8 align 2 {
entry:
  %gearing_ = getelementptr inbounds nuw i8, ptr %this, i64 56
  %0 = load double, ptr %gearing_, align 8, !tbaa !72
  %vtable = load ptr, ptr %this, align 8, !tbaa !35
  %vfn = getelementptr inbounds i8, ptr %vtable, i64 120
  %1 = load ptr, ptr %vfn, align 8
  %call = tail call noundef double %1(ptr noundef nonnull align 8 dereferenceable(72) %this, i32 noundef 1, double noundef %effectiveCap)
  %mul = fmul double %0, %call
  ret double %mul
}